CCS PCH C Compiler, Version 5.007, 61971               23-dez-19 11:20

               Filename:   C:\Users\Fabio T. Brito\Dropbox\IFCE\Disciplinas_IFCE\Apostilas IFCE\Microcontroladores e dispositivos periféricos\Programas apostila oficiais\P79\P79.lst

               ROM used:   280 bytes (1%)
                           Largest free fragment is 32484
               RAM used:   27 (1%) at main() level
                           29 (1%) worst case
               Stack used: 1 locations (0 in main + 1 for interrupts)
               Stack size: 31

*
0000:  GOTO   00E8
*
0008:  MOVWF  04
000A:  MOVFF  FD8,05
000E:  MOVFF  FE0,06
0012:  MOVLB  0
0014:  MOVFF  FE9,0C
0018:  MOVFF  FEA,07
001C:  MOVFF  FE1,08
0020:  MOVFF  FE2,09
0024:  MOVFF  FD9,0A
0028:  MOVFF  FDA,0B
002C:  MOVFF  FF3,12
0030:  MOVFF  FF4,13
0034:  MOVFF  FFA,14
0038:  MOVFF  00,0E
003C:  MOVFF  01,0F
0040:  MOVFF  02,10
0044:  MOVFF  03,11
0048:  BTFSS  F9D.0
004A:  GOTO   0054
004E:  BTFSC  F9E.0
0050:  GOTO   0096
0054:  MOVFF  0E,00
0058:  MOVFF  0F,01
005C:  MOVFF  10,02
0060:  MOVFF  11,03
0064:  MOVFF  0C,FE9
0068:  MOVFF  07,FEA
006C:  BSF    07.7
006E:  MOVFF  08,FE1
0072:  MOVFF  09,FE2
0076:  MOVFF  0A,FD9
007A:  MOVFF  0B,FDA
007E:  MOVFF  12,FF3
0082:  MOVFF  13,FF4
0086:  MOVFF  14,FFA
008A:  MOVF   04,W
008C:  MOVFF  06,FE0
0090:  MOVFF  05,FD8
0094:  RETFIE 0
.................... #define led1 pin_d1 
.................... #include <18F4550.h> 
.................... //////// Standard Header file for the PIC18F4550 device //////////////// 
.................... #device PIC18F4550 
....................  
.................... #list 
....................  
.................... #fuses HS, NOWDT, PUT, BROWNOUT, NOLVP, CPUDIV1,PLL5,USBDIV  //Configuração dos fusíveis 
.................... #use delay(clock=20000000) 
.................... #int_timer1 
.................... void funcao_tempo() 
.................... { 
.................... static boolean flag; 
.................... static unsigned int32 n; 
.................... set_timer1(3036+get_timer1()); 
0096:  MOVF   FCE,W
0098:  MOVFF  FCF,03
009C:  ADDLW  DC
009E:  MOVWF  1B
00A0:  MOVLW  0B
00A2:  ADDWFC FCF,W
00A4:  MOVWF  FCF
00A6:  MOVFF  1B,FCE
.................... n++; 
00AA:  MOVLW  01
00AC:  ADDWF  17,F
00AE:  BTFSC  FD8.0
00B0:  INCF   18,F
00B2:  BTFSC  FD8.2
00B4:  INCF   19,F
00B6:  BTFSC  FD8.2
00B8:  INCF   1A,F
.................... if (n==10)//divisão de tempo 
00BA:  MOVF   17,W
00BC:  SUBLW  0A
00BE:  BNZ   00E2
00C0:  MOVF   18,F
00C2:  BNZ   00E2
00C4:  MOVF   19,F
00C6:  BNZ   00E2
00C8:  MOVF   1A,F
00CA:  BNZ   00E2
.................... {n=0; 
00CC:  CLRF   1A
00CE:  CLRF   19
00D0:  CLRF   18
00D2:  CLRF   17
.................... flag=!flag; 
00D4:  BTG    16.0
.................... output_bit(led1,flag); 
00D6:  BTFSC  16.0
00D8:  BRA    00DE
00DA:  BCF    F8C.1
00DC:  BRA    00E0
00DE:  BSF    F8C.1
00E0:  BCF    F95.1
00E2:  BCF    F9E.0
00E4:  GOTO   0054
.................... }} 
.................... void main() 
00E8:  CLRF   FF8
00EA:  BCF    FD0.7
00EC:  BSF    07.7
00EE:  MOVF   FC1,W
00F0:  ANDLW  C0
00F2:  IORLW  0F
00F4:  MOVWF  FC1
00F6:  MOVLW  07
00F8:  MOVWF  FB4
00FA:  BCF    16.0
00FC:  BCF    16.0
00FE:  CLRF   17
0100:  CLRF   18
0102:  CLRF   19
0104:  CLRF   1A
....................  { 
....................  setup_timer_1 (T1_INTERNAL|T1_DIV_BY_8);  
0106:  MOVLW  B5
0108:  MOVWF  FCD
....................  set_timer1(3036);                                                 
010A:  MOVLW  0B
010C:  MOVWF  FCF
010E:  MOVLW  DC
0110:  MOVWF  FCE
....................  enable_interrupts(GLOBAL); 
0112:  MOVLW  C0
0114:  IORWF  FF2,F
....................  enable_interrupts(INT_TIMER1); 
0116:  BSF    F9D.0
....................  while(true) 
....................  { } } 
0118:  BRA    0118
....................  
011A:  SLEEP 

Configuration Fuses:
   Word  1: CC24   PLL5 CPUDIV1 USBDIV HS FCMEN IESO
   Word  2: 1E3E   PUT BROWNOUT BORV21 VREGEN NOWDT WDT32768
   Word  3: 8700   CCP2C1 PBADEN LPT1OSC MCLR
   Word  4: 00A1   STVREN NOLVP ICSP2 NOXINST NODEBUG
   Word  5: C00F   NOPROTECT NOCPB NOCPD
   Word  6: E00F   NOWRT NOWRTC NOWRTB NOWRTD
   Word  7: 400F   NOEBTR NOEBTRB
